target datalayout = "e-m:e-p270:32:32-p271:32:32-p272:64:64-i64:64-i128:128-f80:128-n8:16:32:64-S128"
target triple = "x86_64-pc-linux-gnu"

%struct._packet_info = type { ptr, ptr, i32, i32, %struct.nstime_t, %struct.nstime_t, %struct.nstime_t, i8, ptr, ptr, ptr, ptr, %struct._address, %struct._address, %struct._address, %struct._address, %struct._address, %struct._address, i32, ptr, i8, [3 x i8], %struct.anon, i32, i32, i32, i32, ptr, i8, ptr, ptr, i16, i16, i32, i32, i16, i32, i32, ptr, ptr, ptr, i8, i8, i16, i16, i16, i32, i16, i16, ptr, ptr, ptr, ptr, ptr, i32, i32 }
%struct.nstime_t = type { i64, i32 }
%struct._address = type { i32, i32, ptr, ptr }
%struct.anon = type { i8, [3 x i8] }
%struct._proto_node = type { ptr, ptr, ptr, ptr, ptr, ptr, ptr }
%struct.field_info = type { ptr, i32, i32, i32, i32, i32, i32, ptr, ptr, ptr, i32, i32 }

@.str = private unnamed_addr constant [8 x i8] c"Unknown\00", align 1
@hf_awdl_fixed_parameters = internal global i32 0, align 4
@hf_awdl_tagged_parameters = internal global i32 0, align 4
@hf_awdl_type = internal global i32 0, align 4
@hf_awdl_subtype = internal global i32 0, align 4
@hf_awdl_rsvd = internal global i32 0, align 4
@hf_awdl_phytime = internal global i32 0, align 4
@hf_awdl_targettime = internal global i32 0, align 4
@hf_awdl_txdelay = internal global i32 0, align 4
@hf_awdl_version = internal global i32 0, align 4
@ett_awdl = internal global i32 0, align 4
@ett_awdl_fixed_parameters = internal global i32 0, align 4
@ett_awdl_tagged_parameters = internal global i32 0, align 4
@ett_awdl_version = internal global i32 0, align 4
@.str.437 = private unnamed_addr constant [5 x i8] c"AWDL\00", align 1
@proto_awdl = internal global i32 0, align 4
@.str.550 = private unnamed_addr constant [12 x i8] c" (%d bytes)\00", align 1
@.str.557 = private unnamed_addr constant [14 x i8] c", Subtype: %s\00", align 1
@add_awdl_version.fields = internal constant [3 x ptr] [ptr @hf_awdl_version_major, ptr @hf_awdl_version_minor, ptr null], align 16
@.str.558 = private unnamed_addr constant [9 x i8] c" (%u.%u)\00", align 1
@awdl_subtype_col = internal constant [3 x { i32, [4 x i8], ptr }] [{ i32, [4 x i8], ptr } { i32 0, [4 x i8] zeroinitializer, ptr @.str.559 }, { i32, [4 x i8], ptr } { i32 3, [4 x i8] zeroinitializer, ptr @.str.560 }, { i32, [4 x i8], ptr } zeroinitializer], align 16
@awdl_subtype_short = internal constant [3 x { i32, [4 x i8], ptr }] [{ i32, [4 x i8], ptr } { i32 0, [4 x i8] zeroinitializer, ptr @.str.562 }, { i32, [4 x i8], ptr } { i32 3, [4 x i8] zeroinitializer, ptr @.str.563 }, { i32, [4 x i8], ptr } zeroinitializer], align 16

; Function Attrs: null_pointer_is_valid sspstrong uwtable
define internal void @awdl_add_tagged_parameters(ptr noundef %0, i32 noundef %1, ptr noundef %2, ptr noundef %3, i32 noundef %4) #0 {
  %6 = alloca ptr, align 8
  %7 = alloca i32, align 4
  %8 = alloca ptr, align 8
  %9 = alloca ptr, align 8
  %10 = alloca i32, align 4
  %11 = alloca i32, align 4
  store ptr %0, ptr %6, align 8
  store i32 %1, ptr %7, align 4
  store ptr %2, ptr %8, align 8
  store ptr %3, ptr %9, align 8
  store i32 %4, ptr %10, align 4
  call void @llvm.lifetime.start.p0(i64 4, ptr %11) #6
  br label %12

12:                                               ; preds = %29, %5
  %13 = load i32, ptr %10, align 4
  %14 = icmp sgt i32 %13, 0
  br i1 %14, label %15, label %36

15:                                               ; preds = %12
  %16 = load ptr, ptr %8, align 8
  %17 = load ptr, ptr %9, align 8
  %18 = load ptr, ptr %6, align 8
  %19 = load i32, ptr %7, align 4
  %20 = call i32 @awdl_add_tagged_field(ptr noundef %16, ptr noundef %17, ptr noundef %18, i32 noundef %19, i32 noundef 3)
  store i32 %20, ptr %11, align 4
  %21 = icmp eq i32 %20, 0
  br i1 %21, label %22, label %23

22:                                               ; preds = %15
  br label %36

23:                                               ; preds = %15
  %24 = load i32, ptr %11, align 4
  %25 = load i32, ptr %10, align 4
  %26 = icmp sgt i32 %24, %25
  br i1 %26, label %27, label %29

27:                                               ; preds = %23
  %28 = load i32, ptr %10, align 4
  store i32 %28, ptr %11, align 4
  br label %29

29:                                               ; preds = %27, %23
  %30 = load i32, ptr %11, align 4
  %31 = load i32, ptr %7, align 4
  %32 = add i32 %31, %30
  store i32 %32, ptr %7, align 4
  %33 = load i32, ptr %11, align 4
  %34 = load i32, ptr %10, align 4
  %35 = sub i32 %34, %33
  store i32 %35, ptr %10, align 4
  br label %12, !llvm.loop !8

36:                                               ; preds = %22, %12
  call void @llvm.lifetime.end.p0(i64 4, ptr %11) #6
  ret void
}

; Function Attrs: null_pointer_is_valid sspstrong uwtable
define internal ptr @get_tagged_parameter_tree(ptr noundef %0, ptr noundef %1, i32 noundef %2, i32 noundef %3) #0 {
  %5 = alloca ptr, align 8
  %6 = alloca ptr, align 8
  %7 = alloca i32, align 4
  %8 = alloca i32, align 4
  %9 = alloca ptr, align 8
  store ptr %0, ptr %5, align 8
  store ptr %1, ptr %6, align 8
  store i32 %2, ptr %7, align 4
  store i32 %3, ptr %8, align 4
  call void @llvm.lifetime.start.p0(i64 8, ptr %9) #6
  %10 = load ptr, ptr %5, align 8
  %11 = load i32, ptr @hf_awdl_tagged_parameters, align 4
  %12 = load ptr, ptr %6, align 8
  %13 = load i32, ptr %7, align 4
  %14 = call ptr @proto_tree_add_item(ptr noundef %10, i32 noundef %11, ptr noundef %12, i32 noundef %13, i32 noundef -1, i32 noundef 0)
  store ptr %14, ptr %9, align 8
  %15 = load ptr, ptr %9, align 8
  %16 = load i32, ptr %8, align 4
  call void (ptr, ptr, ...) @proto_item_append_text(ptr noundef %15, ptr noundef @.str.550, i32 noundef %16)
  %17 = load ptr, ptr %9, align 8
  %18 = load i32, ptr @ett_awdl_tagged_parameters, align 4
  %19 = call ptr @proto_item_add_subtree(ptr noundef %17, i32 noundef %18)
  call void @llvm.lifetime.end.p0(i64 8, ptr %9) #6
  ret ptr %19
}

; Function Attrs: inlinehint nounwind null_pointer_is_valid sspstrong uwtable
define internal void @proto_item_set_generated(ptr noundef %0) #3 {
  %2 = alloca ptr, align 8
  store ptr %0, ptr %2, align 8
  %3 = load ptr, ptr %2, align 8
  %4 = icmp ne ptr %3, null
  br i1 %4, label %5, label %24

5:                                                ; preds = %1
  br label %6

6:                                                ; preds = %5
  %7 = load ptr, ptr %2, align 8
  %8 = getelementptr inbounds nuw %struct._proto_node, ptr %7, i32 0, i32 5
  %9 = load ptr, ptr %8, align 8
  %10 = icmp ne ptr %9, null
  br i1 %10, label %11, label %22

11:                                               ; preds = %6
  %12 = load ptr, ptr %2, align 8
  %13 = getelementptr inbounds nuw %struct._proto_node, ptr %12, i32 0, i32 5
  %14 = load ptr, ptr %13, align 8
  %15 = getelementptr inbounds nuw %struct.field_info, ptr %14, i32 0, i32 6
  %16 = load i32, ptr %15, align 4
  %17 = or i32 %16, 2
  %18 = load ptr, ptr %2, align 8
  %19 = getelementptr inbounds nuw %struct._proto_node, ptr %18, i32 0, i32 5
  %20 = load ptr, ptr %19, align 8
  %21 = getelementptr inbounds nuw %struct.field_info, ptr %20, i32 0, i32 6
  store i32 %17, ptr %21, align 4
  br label %22

22:                                               ; preds = %11, %6
  br label %23

23:                                               ; preds = %22
  br label %24

24:                                               ; preds = %23, %1
  ret void
}

; Function Attrs: null_pointer_is_valid sspstrong uwtable
define internal ptr @add_awdl_version(ptr noundef %0, i32 noundef %1, ptr noundef %2) #0 {
  %4 = alloca ptr, align 8
  %5 = alloca i32, align 4
  %6 = alloca ptr, align 8
  %7 = alloca ptr, align 8
  %8 = alloca i64, align 8
  store ptr %0, ptr %4, align 8
  store i32 %1, ptr %5, align 4
  store ptr %2, ptr %6, align 8
  call void @llvm.lifetime.start.p0(i64 8, ptr %7) #6
  call void @llvm.lifetime.start.p0(i64 8, ptr %8) #6
  %9 = load ptr, ptr %6, align 8
  %10 = load ptr, ptr %4, align 8
  %11 = load i32, ptr %5, align 4
  %12 = load i32, ptr @hf_awdl_version, align 4
  %13 = load i32, ptr @ett_awdl_version, align 4
  %14 = call ptr @proto_tree_add_bitmask_with_flags_ret_uint64(ptr noundef %9, ptr noundef %10, i32 noundef %11, i32 noundef %12, i32 noundef %13, ptr noundef @add_awdl_version.fields, i32 noundef -2147483648, i32 noundef 1, ptr noundef %8)
  store ptr %14, ptr %7, align 8
  %15 = load ptr, ptr %7, align 8
  %16 = load i64, ptr %8, align 8
  %17 = lshr i64 %16, 4
  %18 = and i64 %17, 15
  %19 = trunc i64 %18 to i8
  %20 = zext i8 %19 to i32
  %21 = load i64, ptr %8, align 8
  %22 = and i64 %21, 15
  %23 = trunc i64 %22 to i8
  %24 = zext i8 %23 to i32
  call void (ptr, ptr, ...) @proto_item_append_text(ptr noundef %15, ptr noundef @.str.558, i32 noundef %20, i32 noundef %24)
  %25 = load ptr, ptr %7, align 8
  call void @llvm.lifetime.end.p0(i64 8, ptr %8) #6
  call void @llvm.lifetime.end.p0(i64 8, ptr %7) #6
  ret ptr %25
}

; Function Attrs: null_pointer_is_valid sspstrong uwtable
define internal i32 @dissect_awdl_action(ptr noundef %0, ptr noundef %1, ptr noundef %2, ptr noundef %3) #0 {
  %5 = alloca ptr, align 8
  %6 = alloca ptr, align 8
  %7 = alloca ptr, align 8
  %8 = alloca ptr, align 8
  %9 = alloca i32, align 4
  %10 = alloca i32, align 4
  %11 = alloca ptr, align 8
  %12 = alloca ptr, align 8
  %13 = alloca ptr, align 8
  %14 = alloca ptr, align 8
  %15 = alloca ptr, align 8
  %16 = alloca ptr, align 8
  %17 = alloca ptr, align 8
  %18 = alloca i32, align 4
  %19 = alloca i32, align 4
  %20 = alloca i8, align 1
  store ptr %0, ptr %5, align 8
  store ptr %1, ptr %6, align 8
  store ptr %2, ptr %7, align 8
  store ptr %3, ptr %8, align 8
  call void @llvm.lifetime.start.p0(i64 4, ptr %9) #6
  store i32 0, ptr %9, align 4
  call void @llvm.lifetime.start.p0(i64 4, ptr %10) #6
  call void @llvm.lifetime.start.p0(i64 8, ptr %11) #6
  call void @llvm.lifetime.start.p0(i64 8, ptr %12) #6
  call void @llvm.lifetime.start.p0(i64 8, ptr %13) #6
  call void @llvm.lifetime.start.p0(i64 8, ptr %14) #6
  call void @llvm.lifetime.start.p0(i64 8, ptr %15) #6
  call void @llvm.lifetime.start.p0(i64 8, ptr %16) #6
  call void @llvm.lifetime.start.p0(i64 8, ptr %17) #6
  call void @llvm.lifetime.start.p0(i64 4, ptr %18) #6
  call void @llvm.lifetime.start.p0(i64 4, ptr %19) #6
  call void @llvm.lifetime.start.p0(i64 1, ptr %20) #6
  %21 = load ptr, ptr %7, align 8
  %22 = call ptr @proto_tree_get_parent_tree(ptr noundef %21)
  %23 = call ptr @proto_tree_get_parent_tree(ptr noundef %22)
  store ptr %23, ptr %11, align 8
  %24 = load ptr, ptr %11, align 8
  %25 = load i32, ptr @proto_awdl, align 4
  %26 = load ptr, ptr %5, align 8
  %27 = load i32, ptr %9, align 4
  %28 = call ptr @proto_tree_add_item(ptr noundef %24, i32 noundef %25, ptr noundef %26, i32 noundef %27, i32 noundef -1, i32 noundef 0)
  store ptr %28, ptr %15, align 8
  %29 = load ptr, ptr %15, align 8
  %30 = load i32, ptr @ett_awdl, align 4
  %31 = call ptr @proto_item_add_subtree(ptr noundef %29, i32 noundef %30)
  store ptr %31, ptr %12, align 8
  %32 = load ptr, ptr %12, align 8
  %33 = load i32, ptr @hf_awdl_fixed_parameters, align 4
  %34 = load ptr, ptr %5, align 8
  %35 = load i32, ptr %9, align 4
  %36 = call ptr @proto_tree_add_item(ptr noundef %32, i32 noundef %33, ptr noundef %34, i32 noundef %35, i32 noundef 12, i32 noundef 0)
  store ptr %36, ptr %17, align 8
  %37 = load ptr, ptr %17, align 8
  %38 = load i32, ptr @ett_awdl_fixed_parameters, align 4
  %39 = call ptr @proto_item_add_subtree(ptr noundef %37, i32 noundef %38)
  store ptr %39, ptr %13, align 8
  %40 = load ptr, ptr %13, align 8
  %41 = load i32, ptr @hf_awdl_type, align 4
  %42 = load ptr, ptr %5, align 8
  %43 = load i32, ptr %9, align 4
  %44 = call ptr @proto_tree_add_item(ptr noundef %40, i32 noundef %41, ptr noundef %42, i32 noundef %43, i32 noundef 1, i32 noundef -2147483648)
  %45 = load i32, ptr %9, align 4
  %46 = add i32 %45, 1
  store i32 %46, ptr %9, align 4
  %47 = load ptr, ptr %5, align 8
  %48 = load i32, ptr %9, align 4
  %49 = load ptr, ptr %13, align 8
  %50 = call ptr @add_awdl_version(ptr noundef %47, i32 noundef %48, ptr noundef %49)
  %51 = load i32, ptr %9, align 4
  %52 = add i32 %51, 1
  store i32 %52, ptr %9, align 4
  %53 = load ptr, ptr %5, align 8
  %54 = load i32, ptr %9, align 4
  %55 = call zeroext i8 @tvb_get_uint8(ptr noundef %53, i32 noundef %54)
  store i8 %55, ptr %20, align 1
  %56 = load ptr, ptr %13, align 8
  %57 = load i32, ptr @hf_awdl_subtype, align 4
  %58 = load ptr, ptr %5, align 8
  %59 = load i32, ptr %9, align 4
  %60 = call ptr @proto_tree_add_item(ptr noundef %56, i32 noundef %57, ptr noundef %58, i32 noundef %59, i32 noundef 1, i32 noundef -2147483648)
  %61 = load i32, ptr %9, align 4
  %62 = add i32 %61, 1
  store i32 %62, ptr %9, align 4
  %63 = load ptr, ptr %13, align 8
  %64 = load i32, ptr @hf_awdl_rsvd, align 4
  %65 = load ptr, ptr %5, align 8
  %66 = load i32, ptr %9, align 4
  %67 = call ptr @proto_tree_add_item(ptr noundef %63, i32 noundef %64, ptr noundef %65, i32 noundef %66, i32 noundef 1, i32 noundef -2147483648)
  %68 = load i32, ptr %9, align 4
  %69 = add i32 %68, 1
  store i32 %69, ptr %9, align 4
  %70 = load ptr, ptr %13, align 8
  %71 = load i32, ptr @hf_awdl_phytime, align 4
  %72 = load ptr, ptr %5, align 8
  %73 = load i32, ptr %9, align 4
  %74 = call ptr @proto_tree_add_item(ptr noundef %70, i32 noundef %71, ptr noundef %72, i32 noundef %73, i32 noundef 4, i32 noundef -2147483648)
  %75 = load ptr, ptr %5, align 8
  %76 = load i32, ptr %9, align 4
  %77 = call i32 @tvb_get_uint32(ptr noundef %75, i32 noundef %76, i32 noundef -2147483648)
  store i32 %77, ptr %18, align 4
  %78 = load i32, ptr %9, align 4
  %79 = add i32 %78, 4
  store i32 %79, ptr %9, align 4
  %80 = load ptr, ptr %13, align 8
  %81 = load i32, ptr @hf_awdl_targettime, align 4
  %82 = load ptr, ptr %5, align 8
  %83 = load i32, ptr %9, align 4
  %84 = call ptr @proto_tree_add_item(ptr noundef %80, i32 noundef %81, ptr noundef %82, i32 noundef %83, i32 noundef 4, i32 noundef -2147483648)
  %85 = load ptr, ptr %5, align 8
  %86 = load i32, ptr %9, align 4
  %87 = call i32 @tvb_get_uint32(ptr noundef %85, i32 noundef %86, i32 noundef -2147483648)
  store i32 %87, ptr %19, align 4
  %88 = load i32, ptr %9, align 4
  %89 = add i32 %88, 4
  store i32 %89, ptr %9, align 4
  %90 = load ptr, ptr %13, align 8
  %91 = load i32, ptr @hf_awdl_txdelay, align 4
  %92 = load ptr, ptr %5, align 8
  %93 = load i32, ptr %18, align 4
  %94 = load i32, ptr %19, align 4
  %95 = sub i32 %93, %94
  %96 = call ptr @proto_tree_add_uint(ptr noundef %90, i32 noundef %91, ptr noundef %92, i32 noundef 0, i32 noundef 0, i32 noundef %95)
  store ptr %96, ptr %16, align 8
  %97 = load ptr, ptr %16, align 8
  call void @proto_item_set_generated(ptr noundef %97)
  %98 = load ptr, ptr %6, align 8
  %99 = getelementptr inbounds nuw %struct._packet_info, ptr %98, i32 0, i32 1
  %100 = load ptr, ptr %99, align 8
  call void @col_set_str(ptr noundef %100, i32 noundef 35, ptr noundef @.str.437)
  %101 = load ptr, ptr %6, align 8
  %102 = getelementptr inbounds nuw %struct._packet_info, ptr %101, i32 0, i32 1
  %103 = load ptr, ptr %102, align 8
  %104 = load i8, ptr %20, align 1
  %105 = zext i8 %104 to i32
  %106 = call ptr @val_to_str_const(i32 noundef %105, ptr noundef @awdl_subtype_col, ptr noundef @.str)
  call void @col_set_str(ptr noundef %103, i32 noundef 25, ptr noundef %106)
  %107 = load ptr, ptr %15, align 8
  %108 = load i8, ptr %20, align 1
  %109 = zext i8 %108 to i32
  %110 = call ptr @val_to_str_const(i32 noundef %109, ptr noundef @awdl_subtype_short, ptr noundef @.str)
  call void (ptr, ptr, ...) @proto_item_append_text(ptr noundef %107, ptr noundef @.str.557, ptr noundef %110)
  %111 = load ptr, ptr %5, align 8
  %112 = load i32, ptr %9, align 4
  %113 = call i32 @tvb_reported_length_remaining(ptr noundef %111, i32 noundef %112)
  store i32 %113, ptr %10, align 4
  %114 = load ptr, ptr %12, align 8
  %115 = load ptr, ptr %5, align 8
  %116 = load i32, ptr %9, align 4
  %117 = load i32, ptr %10, align 4
  %118 = call ptr @get_tagged_parameter_tree(ptr noundef %114, ptr noundef %115, i32 noundef %116, i32 noundef %117)
  store ptr %118, ptr %14, align 8
  %119 = load ptr, ptr %5, align 8
  %120 = load i32, ptr %9, align 4
  %121 = load ptr, ptr %6, align 8
  %122 = load ptr, ptr %14, align 8
  %123 = load i32, ptr %10, align 4
  call void @awdl_add_tagged_parameters(ptr noundef %119, i32 noundef %120, ptr noundef %121, ptr noundef %122, i32 noundef %123)
  %124 = load i32, ptr %10, align 4
  %125 = load i32, ptr %9, align 4
  %126 = add i32 %125, %124
  store i32 %126, ptr %9, align 4
  %127 = load i32, ptr %9, align 4
  call void @llvm.lifetime.end.p0(i64 1, ptr %20) #6
  call void @llvm.lifetime.end.p0(i64 4, ptr %19) #6
  call void @llvm.lifetime.end.p0(i64 4, ptr %18) #6
  call void @llvm.lifetime.end.p0(i64 8, ptr %17) #6
  call void @llvm.lifetime.end.p0(i64 8, ptr %16) #6
  call void @llvm.lifetime.end.p0(i64 8, ptr %15) #6
  call void @llvm.lifetime.end.p0(i64 8, ptr %14) #6
  call void @llvm.lifetime.end.p0(i64 8, ptr %13) #6
  call void @llvm.lifetime.end.p0(i64 8, ptr %12) #6
  call void @llvm.lifetime.end.p0(i64 8, ptr %11) #6
  call void @llvm.lifetime.end.p0(i64 4, ptr %10) #6
  call void @llvm.lifetime.end.p0(i64 4, ptr %9) #6
  ret i32 %127
}