; Function Attrs: null_pointer_is_valid sspstrong uwtable
define internal i32 @dissect_awdl_action(ptr noundef %0, ptr noundef %1, ptr noundef %2, ptr readnone captures(none) %3) #0 {
  %5 = alloca i64, align 8
  %6 = tail call ptr @proto_tree_get_parent_tree(ptr noundef %2)
  %7 = tail call ptr @proto_tree_get_parent_tree(ptr noundef %6)
  %8 = load i32, ptr @proto_awdl, align 4
  %9 = tail call ptr @proto_tree_add_item(ptr noundef %7, i32 noundef %8, ptr noundef %0, i32 noundef 0, i32 noundef -1, i32 noundef 0)
  %10 = load i32, ptr @ett_awdl, align 4
  %11 = tail call ptr @proto_item_add_subtree(ptr noundef %9, i32 noundef %10)
  %12 = load i32, ptr @hf_awdl_fixed_parameters, align 4
  %13 = tail call ptr @proto_tree_add_item(ptr noundef %11, i32 noundef %12, ptr noundef %0, i32 noundef 0, i32 noundef 12, i32 noundef 0)
  %14 = load i32, ptr @ett_awdl_fixed_parameters, align 4
  %15 = tail call ptr @proto_item_add_subtree(ptr noundef %13, i32 noundef %14)
  %16 = load i32, ptr @hf_awdl_type, align 4
  %17 = tail call ptr @proto_tree_add_item(ptr noundef %15, i32 noundef %16, ptr noundef %0, i32 noundef 0, i32 noundef 1, i32 noundef -2147483648)
  call void @llvm.lifetime.start.p0(i64 8, ptr nonnull %5) #5
  %18 = load i32, ptr @hf_awdl_version, align 4
  %19 = load i32, ptr @ett_awdl_version, align 4
  %20 = call ptr @proto_tree_add_bitmask_with_flags_ret_uint64(ptr noundef %15, ptr noundef %0, i32 noundef 1, i32 noundef %18, i32 noundef %19, ptr noundef nonnull @add_awdl_version.fields, i32 noundef -2147483648, i32 noundef 1, ptr noundef nonnull %5)
  %21 = load i64, ptr %5, align 8
  %22 = trunc i64 %21 to i32
  %23 = lshr i32 %22, 4
  %24 = and i32 %23, 15
  %25 = and i32 %22, 15
  call void (ptr, ptr, ...) @proto_item_append_text(ptr noundef %20, ptr noundef nonnull @.str.558, i32 noundef %24, i32 noundef %25)
  call void @llvm.lifetime.end.p0(i64 8, ptr nonnull %5) #5
  %26 = call zeroext i8 @tvb_get_uint8(ptr noundef %0, i32 noundef 2)
  %27 = load i32, ptr @hf_awdl_subtype, align 4
  %28 = call ptr @proto_tree_add_item(ptr noundef %15, i32 noundef %27, ptr noundef %0, i32 noundef 2, i32 noundef 1, i32 noundef -2147483648)
  %29 = load i32, ptr @hf_awdl_rsvd, align 4
  %30 = call ptr @proto_tree_add_item(ptr noundef %15, i32 noundef %29, ptr noundef %0, i32 noundef 3, i32 noundef 1, i32 noundef -2147483648)
  %31 = load i32, ptr @hf_awdl_phytime, align 4
  %32 = call ptr @proto_tree_add_item(ptr noundef %15, i32 noundef %31, ptr noundef %0, i32 noundef 4, i32 noundef 4, i32 noundef -2147483648)
  %33 = call i32 @tvb_get_uint32(ptr noundef %0, i32 noundef 4, i32 noundef -2147483648)
  %34 = load i32, ptr @hf_awdl_targettime, align 4
  %35 = call ptr @proto_tree_add_item(ptr noundef %15, i32 noundef %34, ptr noundef %0, i32 noundef 8, i32 noundef 4, i32 noundef -2147483648)
  %36 = call i32 @tvb_get_uint32(ptr noundef %0, i32 noundef 8, i32 noundef -2147483648)
  %37 = load i32, ptr @hf_awdl_txdelay, align 4
  %38 = sub i32 %33, %36
  %39 = call ptr @proto_tree_add_uint(ptr noundef %15, i32 noundef %37, ptr noundef %0, i32 noundef 0, i32 noundef 0, i32 noundef %38)
  %.not.i = icmp eq ptr %39, null
  br i1 %.not.i, label %proto_item_set_generated.exit, label %40

40:                                               ; preds = %4
  %41 = getelementptr inbounds nuw i8, ptr %39, i64 40
  %42 = load ptr, ptr %41, align 8
  %.not5.i = icmp eq ptr %42, null
  br i1 %.not5.i, label %proto_item_set_generated.exit, label %43

43:                                               ; preds = %40
  %44 = getelementptr inbounds nuw i8, ptr %42, i64 28
  %45 = load i32, ptr %44, align 4
  %46 = or i32 %45, 2
  store i32 %46, ptr %44, align 4
  br label %proto_item_set_generated.exit

proto_item_set_generated.exit:                    ; preds = %4, %40, %43
  %47 = getelementptr inbounds nuw i8, ptr %1, i64 8
  %48 = load ptr, ptr %47, align 8
  call void @col_set_str(ptr noundef %48, i32 noundef 35, ptr noundef nonnull @.str.437)
  %49 = load ptr, ptr %47, align 8
  %50 = zext i8 %26 to i32
  %51 = call ptr @val_to_str_const(i32 noundef %50, ptr noundef nonnull @awdl_subtype_col, ptr noundef nonnull @.str)
  call void @col_set_str(ptr noundef %49, i32 noundef 25, ptr noundef %51)
  %52 = call ptr @val_to_str_const(i32 noundef %50, ptr noundef nonnull @awdl_subtype_short, ptr noundef nonnull @.str)
  call void (ptr, ptr, ...) @proto_item_append_text(ptr noundef %9, ptr noundef nonnull @.str.557, ptr noundef %52)
  %53 = call i32 @tvb_reported_length_remaining(ptr noundef %0, i32 noundef 12)
  %54 = load i32, ptr @hf_awdl_tagged_parameters, align 4
  %55 = call ptr @proto_tree_add_item(ptr noundef %11, i32 noundef %54, ptr noundef %0, i32 noundef 12, i32 noundef -1, i32 noundef 0)
  call void (ptr, ptr, ...) @proto_item_append_text(ptr noundef %55, ptr noundef nonnull @.str.550, i32 noundef %53)
  %56 = load i32, ptr @ett_awdl_tagged_parameters, align 4
  %57 = call ptr @proto_item_add_subtree(ptr noundef %55, i32 noundef %56)
  %58 = icmp sgt i32 %53, 0
  br i1 %58, label %.lr.ph.i, label %awdl_add_tagged_parameters.exit

.lr.ph.i:                                         ; preds = %proto_item_set_generated.exit, %.lr.ph.i
  %.01115.i = phi i32 [ %61, %.lr.ph.i ], [ %53, %proto_item_set_generated.exit ]
  %.01214.i = phi i32 [ %60, %.lr.ph.i ], [ 12, %proto_item_set_generated.exit ]
  %59 = call fastcc i32 @awdl_add_tagged_field(ptr noundef %1, ptr noundef %57, ptr noundef %0, i32 noundef %.01214.i, i32 noundef 3)
  %.0.i = call i32 @llvm.umin.i32(i32 %59, i32 %.01115.i)
  %60 = add i32 %.0.i, %.01214.i
  %61 = sub nsw i32 %.01115.i, %.0.i
  %62 = icmp sgt i32 %61, 0
  br i1 %62, label %.lr.ph.i, label %awdl_add_tagged_parameters.exit, !llvm.loop !8

awdl_add_tagged_parameters.exit:                  ; preds = %.lr.ph.i, %proto_item_set_generated.exit
  %63 = add i32 %53, 12
  ret i32 %63
}